target datalayout = "e-m:e-p270:32:32-p271:32:32-p272:64:64-i64:64-i128:128-f80:128-n8:16:32:64-S128"
target triple = "x86_64-pc-linux-gnu"

%"class.base::BasicStringPiece.5" = type { ptr, i64 }

; Function Attrs: mustprogress nounwind uwtable
define linkonce_odr noundef i32 @_ZNSt14numeric_limitsIjE3maxEv() #3 comdat align 2 {
  ret i32 -1
}

; Function Attrs: mustprogress nounwind uwtable
define internal noundef i32 @_ZN4base12_GLOBAL__N_131BaseIteratorRangeToNumberTraitsIPKtjLi10EE3maxEv() #3 align 2 {
  %1 = call noundef i32 @_ZNSt14numeric_limitsIjE3maxEv() #17
  ret i32 %1
}

; Function Attrs: mustprogress nounwind uwtable
define internal noundef zeroext i1 @_ZN4base12_GLOBAL__N_115BaseCharToDigitItLi10ELb1EE7ConvertEtPh(i16 noundef zeroext %0, ptr noundef %1) #3 align 2 {
  %3 = alloca i1, align 1
  %4 = alloca i16, align 2
  %5 = alloca ptr, align 8
  store i16 %0, ptr %4, align 2, !tbaa !17
  store ptr %1, ptr %5, align 8, !tbaa !9
  %6 = load i16, ptr %4, align 2, !tbaa !17
  %7 = zext i16 %6 to i32
  %8 = icmp sge i32 %7, 48
  br i1 %8, label %9, label %19

9:                                                ; preds = %2
  %10 = load i16, ptr %4, align 2, !tbaa !17
  %11 = zext i16 %10 to i32
  %12 = icmp slt i32 %11, 58
  br i1 %12, label %13, label %19

13:                                               ; preds = %9
  %14 = load i16, ptr %4, align 2, !tbaa !17
  %15 = zext i16 %14 to i32
  %16 = sub nsw i32 %15, 48
  %17 = trunc i32 %16 to i8
  %18 = load ptr, ptr %5, align 8, !tbaa !9
  store i8 %17, ptr %18, align 1, !tbaa !12
  store i1 true, ptr %3, align 1
  br label %20

19:                                               ; preds = %9, %2
  store i1 false, ptr %3, align 1
  br label %20

20:                                               ; preds = %19, %13
  %21 = load i1, ptr %3, align 1
  ret i1 %21
}

; Function Attrs: mustprogress nounwind uwtable
define internal void @_ZN4base12_GLOBAL__N_121IteratorRangeToNumberINS0_27StringPiece16ToNumberTraitsIjLi10EEEE8Positive9IncrementEhPj(i8 noundef zeroext %0, ptr noundef %1) #3 align 2 {
  %3 = alloca i8, align 1
  %4 = alloca ptr, align 8
  store i8 %0, ptr %3, align 1, !tbaa !12
  store ptr %1, ptr %4, align 8, !tbaa !34
  %5 = load i8, ptr %3, align 1, !tbaa !12
  %6 = zext i8 %5 to i32
  %7 = load ptr, ptr %4, align 8, !tbaa !34
  %8 = load i32, ptr %7, align 4, !tbaa !3
  %9 = add i32 %8, %6
  store i32 %9, ptr %7, align 4, !tbaa !3
  ret void
}

; Function Attrs: mustprogress uwtable
define internal noundef zeroext i1 @_ZN4base12_GLOBAL__N_121IteratorRangeToNumberINS0_27StringPiece16ToNumberTraitsIjLi10EEEE8Positive11CheckBoundsEPjh(ptr noundef %0, i8 noundef zeroext %1) #0 align 2 {
  %3 = alloca i1, align 1
  %4 = alloca ptr, align 8
  %5 = alloca i8, align 1
  store ptr %0, ptr %4, align 8, !tbaa !34
  store i8 %1, ptr %5, align 1, !tbaa !12
  %6 = load ptr, ptr %4, align 8, !tbaa !34
  %7 = load i32, ptr %6, align 4, !tbaa !3
  %8 = call noundef i32 @_ZN4base12_GLOBAL__N_131BaseIteratorRangeToNumberTraitsIPKtjLi10EE3maxEv()
  %9 = udiv i32 %8, 10
  %10 = icmp ugt i32 %7, %9
  br i1 %10, label %23, label %11

11:                                               ; preds = %2
  %12 = load ptr, ptr %4, align 8, !tbaa !34
  %13 = load i32, ptr %12, align 4, !tbaa !3
  %14 = call noundef i32 @_ZN4base12_GLOBAL__N_131BaseIteratorRangeToNumberTraitsIPKtjLi10EE3maxEv()
  %15 = udiv i32 %14, 10
  %16 = icmp eq i32 %13, %15
  br i1 %16, label %17, label %26

17:                                               ; preds = %11
  %18 = load i8, ptr %5, align 1, !tbaa !12
  %19 = zext i8 %18 to i32
  %20 = call noundef i32 @_ZN4base12_GLOBAL__N_131BaseIteratorRangeToNumberTraitsIPKtjLi10EE3maxEv()
  %21 = urem i32 %20, 10
  %22 = icmp ugt i32 %19, %21
  br i1 %22, label %23, label %26

23:                                               ; preds = %17, %2
  %24 = call noundef i32 @_ZN4base12_GLOBAL__N_131BaseIteratorRangeToNumberTraitsIPKtjLi10EE3maxEv()
  %25 = load ptr, ptr %4, align 8, !tbaa !34
  store i32 %24, ptr %25, align 4, !tbaa !3
  store i1 false, ptr %3, align 1
  br label %27

26:                                               ; preds = %17, %11
  store i1 true, ptr %3, align 1
  br label %27

27:                                               ; preds = %26, %23
  %28 = load i1, ptr %3, align 1
  ret i1 %28
}

; Function Attrs: mustprogress uwtable
define internal noundef zeroext i1 @_ZN4base12_GLOBAL__N_111CharToDigitILi10EtEEbT0_Ph(i16 noundef zeroext %0, ptr noundef %1) #0 {
  %3 = alloca i16, align 2
  %4 = alloca ptr, align 8
  store i16 %0, ptr %3, align 2, !tbaa !17
  store ptr %1, ptr %4, align 8, !tbaa !9
  %5 = load i16, ptr %3, align 2, !tbaa !17
  %6 = load ptr, ptr %4, align 8, !tbaa !9
  %7 = call noundef zeroext i1 @_ZN4base12_GLOBAL__N_115BaseCharToDigitItLi10ELb1EE7ConvertEtPh(i16 noundef zeroext %5, ptr noundef %6)
  ret i1 %7
}

; Function Attrs: mustprogress nounwind uwtable
define internal noundef zeroext i1 @_ZN4base12_GLOBAL__N_116WhitespaceHelperItE6InvokeEt(i16 noundef zeroext %0) #3 align 2 {
  %2 = alloca i16, align 2
  store i16 %0, ptr %2, align 2, !tbaa !17
  %3 = load i16, ptr %2, align 2, !tbaa !17
  %4 = zext i16 %3 to i32
  %5 = call i32 @iswspace(i32 noundef %4) #17
  %6 = icmp ne i32 0, %5
  ret i1 %6
}

; Function Attrs: mustprogress uwtable
define internal noundef zeroext i1 @_ZN4base12_GLOBAL__N_121IteratorRangeToNumberINS0_27StringPiece16ToNumberTraitsIjLi10EEEE4BaseINS4_8PositiveEE6InvokeEPKtS9_Pj(ptr noundef %0, ptr noundef %1, ptr noundef %2) #0 align 2 {
  %4 = alloca i1, align 1
  %5 = alloca ptr, align 8
  %6 = alloca ptr, align 8
  %7 = alloca ptr, align 8
  %8 = alloca ptr, align 8
  %9 = alloca i32, align 4
  %10 = alloca i8, align 1
  store ptr %0, ptr %5, align 8, !tbaa !15
  store ptr %1, ptr %6, align 8, !tbaa !15
  store ptr %2, ptr %7, align 8, !tbaa !34
  %11 = load ptr, ptr %7, align 8, !tbaa !34
  store i32 0, ptr %11, align 4, !tbaa !3
  %12 = load ptr, ptr %5, align 8, !tbaa !15
  %13 = load ptr, ptr %6, align 8, !tbaa !15
  %14 = icmp eq ptr %12, %13
  br i1 %14, label %15, label %16

15:                                               ; preds = %3
  store i1 false, ptr %4, align 1
  br label %53

16:                                               ; preds = %3
  call void @llvm.lifetime.start.p0(i64 8, ptr %8) #17
  %17 = load ptr, ptr %5, align 8, !tbaa !15
  store ptr %17, ptr %8, align 8, !tbaa !15
  br label %18

18:                                               ; preds = %47, %16
  %19 = load ptr, ptr %8, align 8, !tbaa !15
  %20 = load ptr, ptr %6, align 8, !tbaa !15
  %21 = icmp ne ptr %19, %20
  br i1 %21, label %23, label %22

22:                                               ; preds = %18
  store i32 2, ptr %9, align 4
  br label %50

23:                                               ; preds = %18
  call void @llvm.lifetime.start.p0(i64 1, ptr %10) #17
  store i8 0, ptr %10, align 1, !tbaa !12
  %24 = load ptr, ptr %8, align 8, !tbaa !15
  %25 = load i16, ptr %24, align 2, !tbaa !17
  %26 = call noundef zeroext i1 @_ZN4base12_GLOBAL__N_111CharToDigitILi10EtEEbT0_Ph(i16 noundef zeroext %25, ptr noundef %10)
  br i1 %26, label %28, label %27

27:                                               ; preds = %23
  store i1 false, ptr %4, align 1
  store i32 1, ptr %9, align 4
  br label %44

28:                                               ; preds = %23
  %29 = load ptr, ptr %8, align 8, !tbaa !15
  %30 = load ptr, ptr %5, align 8, !tbaa !15
  %31 = icmp ne ptr %29, %30
  br i1 %31, label %32, label %41

32:                                               ; preds = %28
  %33 = load ptr, ptr %7, align 8, !tbaa !34
  %34 = load i8, ptr %10, align 1, !tbaa !12
  %35 = call noundef zeroext i1 @_ZN4base12_GLOBAL__N_121IteratorRangeToNumberINS0_27StringPiece16ToNumberTraitsIjLi10EEEE8Positive11CheckBoundsEPjh(ptr noundef %33, i8 noundef zeroext %34)
  br i1 %35, label %37, label %36

36:                                               ; preds = %32
  store i1 false, ptr %4, align 1
  store i32 1, ptr %9, align 4
  br label %44

37:                                               ; preds = %32
  %38 = load ptr, ptr %7, align 8, !tbaa !34
  %39 = load i32, ptr %38, align 4, !tbaa !3
  %40 = mul i32 %39, 10
  store i32 %40, ptr %38, align 4, !tbaa !3
  br label %41

41:                                               ; preds = %37, %28
  %42 = load i8, ptr %10, align 1, !tbaa !12
  %43 = load ptr, ptr %7, align 8, !tbaa !34
  call void @_ZN4base12_GLOBAL__N_121IteratorRangeToNumberINS0_27StringPiece16ToNumberTraitsIjLi10EEEE8Positive9IncrementEhPj(i8 noundef zeroext %42, ptr noundef %43)
  store i32 0, ptr %9, align 4
  br label %44

44:                                               ; preds = %41, %36, %27
  call void @llvm.lifetime.end.p0(i64 1, ptr %10) #17
  %45 = load i32, ptr %9, align 4
  switch i32 %45, label %50 [
    i32 0, label %46
  ]

46:                                               ; preds = %44
  br label %47

47:                                               ; preds = %46
  %48 = load ptr, ptr %8, align 8, !tbaa !15
  %49 = getelementptr inbounds nuw i16, ptr %48, i32 1
  store ptr %49, ptr %8, align 8, !tbaa !15
  br label %18, !llvm.loop !144

50:                                               ; preds = %44, %22
  call void @llvm.lifetime.end.p0(i64 8, ptr %8) #17
  %51 = load i32, ptr %9, align 4
  switch i32 %51, label %55 [
    i32 2, label %52
    i32 1, label %53
  ]

52:                                               ; preds = %50
  store i1 true, ptr %4, align 1
  br label %53

53:                                               ; preds = %52, %50, %15
  %54 = load i1, ptr %4, align 1
  ret i1 %54

55:                                               ; preds = %50
  unreachable
}

; Function Attrs: mustprogress uwtable
define internal noundef zeroext i1 @_ZN4base12_GLOBAL__N_117LocalIsWhitespaceItEEbT_(i16 noundef zeroext %0) #0 {
  %2 = alloca i16, align 2
  store i16 %0, ptr %2, align 2, !tbaa !17
  %3 = load i16, ptr %2, align 2, !tbaa !17
  %4 = call noundef zeroext i1 @_ZN4base12_GLOBAL__N_116WhitespaceHelperItE6InvokeEt(i16 noundef zeroext %3)
  ret i1 %4
}

; Function Attrs: mustprogress uwtable
define internal noundef zeroext i1 @_ZN4base12_GLOBAL__N_121IteratorRangeToNumberINS0_27StringPiece16ToNumberTraitsIjLi10EEEE6InvokeEPKtS6_Pj(ptr noundef %0, ptr noundef %1, ptr noundef %2) #0 align 2 {
  %4 = alloca ptr, align 8
  %5 = alloca ptr, align 8
  %6 = alloca ptr, align 8
  %7 = alloca i8, align 1
  store ptr %0, ptr %4, align 8, !tbaa !15
  store ptr %1, ptr %5, align 8, !tbaa !15
  store ptr %2, ptr %6, align 8, !tbaa !34
  call void @llvm.lifetime.start.p0(i64 1, ptr %7) #17
  store i8 1, ptr %7, align 1, !tbaa !51
  br label %8

8:                                                ; preds = %18, %3
  %9 = load ptr, ptr %4, align 8, !tbaa !15
  %10 = load ptr, ptr %5, align 8, !tbaa !15
  %11 = icmp ne ptr %9, %10
  br i1 %11, label %12, label %16

12:                                               ; preds = %8
  %13 = load ptr, ptr %4, align 8, !tbaa !15
  %14 = load i16, ptr %13, align 2, !tbaa !17
  %15 = call noundef zeroext i1 @_ZN4base12_GLOBAL__N_117LocalIsWhitespaceItEEbT_(i16 noundef zeroext %14)
  br label %16

16:                                               ; preds = %12, %8
  %17 = phi i1 [ false, %8 ], [ %15, %12 ]
  br i1 %17, label %18, label %21

18:                                               ; preds = %16
  store i8 0, ptr %7, align 1, !tbaa !51
  %19 = load ptr, ptr %4, align 8, !tbaa !15
  %20 = getelementptr inbounds nuw i16, ptr %19, i32 1
  store ptr %20, ptr %4, align 8, !tbaa !15
  br label %8, !llvm.loop !143

21:                                               ; preds = %16
  %22 = load ptr, ptr %4, align 8, !tbaa !15
  %23 = load ptr, ptr %5, align 8, !tbaa !15
  %24 = icmp ne ptr %22, %23
  br i1 %24, label %25, label %32

25:                                               ; preds = %21
  %26 = load ptr, ptr %4, align 8, !tbaa !15
  %27 = load i16, ptr %26, align 2, !tbaa !17
  %28 = zext i16 %27 to i32
  %29 = icmp eq i32 %28, 45
  br i1 %29, label %30, label %32

30:                                               ; preds = %25
  %31 = load ptr, ptr %6, align 8, !tbaa !34
  store i32 0, ptr %31, align 4, !tbaa !3
  store i8 0, ptr %7, align 1, !tbaa !51
  br label %51

32:                                               ; preds = %25, %21
  %33 = load ptr, ptr %4, align 8, !tbaa !15
  %34 = load ptr, ptr %5, align 8, !tbaa !15
  %35 = icmp ne ptr %33, %34
  br i1 %35, label %36, label %44

36:                                               ; preds = %32
  %37 = load ptr, ptr %4, align 8, !tbaa !15
  %38 = load i16, ptr %37, align 2, !tbaa !17
  %39 = zext i16 %38 to i32
  %40 = icmp eq i32 %39, 43
  br i1 %40, label %41, label %44

41:                                               ; preds = %36
  %42 = load ptr, ptr %4, align 8, !tbaa !15
  %43 = getelementptr inbounds nuw i16, ptr %42, i32 1
  store ptr %43, ptr %4, align 8, !tbaa !15
  br label %44

44:                                               ; preds = %41, %36, %32
  %45 = load ptr, ptr %4, align 8, !tbaa !15
  %46 = load ptr, ptr %5, align 8, !tbaa !15
  %47 = load ptr, ptr %6, align 8, !tbaa !34
  %48 = call noundef zeroext i1 @_ZN4base12_GLOBAL__N_121IteratorRangeToNumberINS0_27StringPiece16ToNumberTraitsIjLi10EEEE4BaseINS4_8PositiveEE6InvokeEPKtS9_Pj(ptr noundef %45, ptr noundef %46, ptr noundef %47)
  br i1 %48, label %50, label %49

49:                                               ; preds = %44
  store i8 0, ptr %7, align 1, !tbaa !51
  br label %50

50:                                               ; preds = %49, %44
  br label %51

51:                                               ; preds = %50, %30
  %52 = load i8, ptr %7, align 1, !tbaa !51, !range !54, !noundef !55
  %53 = trunc i8 %52 to i1
  call void @llvm.lifetime.end.p0(i64 1, ptr %7) #17
  ret i1 %53
}

; Function Attrs: mustprogress nounwind uwtable
define available_externally noundef ptr @_ZNK4base16BasicStringPieceINSt7__cxx1112basic_stringItNS_20string16_char_traitsESaItEEEE3endEv(ptr noundef nonnull align 8 dereferenceable(16) %0) #3 align 2 {
  %2 = alloca ptr, align 8
  store ptr %0, ptr %2, align 8, !tbaa !36
  %3 = load ptr, ptr %2, align 8
  %4 = getelementptr inbounds nuw %"class.base::BasicStringPiece.5", ptr %3, i32 0, i32 0
  %5 = load ptr, ptr %4, align 8, !tbaa !136
  %6 = getelementptr inbounds nuw %"class.base::BasicStringPiece.5", ptr %3, i32 0, i32 1
  %7 = load i64, ptr %6, align 8, !tbaa !138
  %8 = getelementptr inbounds nuw i16, ptr %5, i64 %7
  ret ptr %8
}

; Function Attrs: mustprogress nounwind uwtable
define available_externally noundef ptr @_ZNK4base16BasicStringPieceINSt7__cxx1112basic_stringItNS_20string16_char_traitsESaItEEEE5beginEv(ptr noundef nonnull align 8 dereferenceable(16) %0) #3 align 2 {
  %2 = alloca ptr, align 8
  store ptr %0, ptr %2, align 8, !tbaa !36
  %3 = load ptr, ptr %2, align 8
  %4 = getelementptr inbounds nuw %"class.base::BasicStringPiece.5", ptr %3, i32 0, i32 0
  %5 = load ptr, ptr %4, align 8, !tbaa !136
  ret ptr %5
}

; Function Attrs: mustprogress uwtable
define internal noundef zeroext i1 @_ZN4base12_GLOBAL__N_117String16ToIntImplIjEEbRKNS_16BasicStringPieceINSt7__cxx1112basic_stringItNS_20string16_char_traitsESaItEEEEEPT_(ptr noundef nonnull align 8 dereferenceable(16) %0, ptr noundef %1) #0 {
  %3 = alloca ptr, align 8
  %4 = alloca ptr, align 8
  store ptr %0, ptr %3, align 8, !tbaa !36
  store ptr %1, ptr %4, align 8, !tbaa !34
  %5 = load ptr, ptr %3, align 8, !tbaa !36
  %6 = call noundef ptr @_ZNK4base16BasicStringPieceINSt7__cxx1112basic_stringItNS_20string16_char_traitsESaItEEEE5beginEv(ptr noundef nonnull align 8 dereferenceable(16) %5)
  %7 = load ptr, ptr %3, align 8, !tbaa !36
  %8 = call noundef ptr @_ZNK4base16BasicStringPieceINSt7__cxx1112basic_stringItNS_20string16_char_traitsESaItEEEE3endEv(ptr noundef nonnull align 8 dereferenceable(16) %7)
  %9 = load ptr, ptr %4, align 8, !tbaa !34
  %10 = call noundef zeroext i1 @_ZN4base12_GLOBAL__N_121IteratorRangeToNumberINS0_27StringPiece16ToNumberTraitsIjLi10EEEE6InvokeEPKtS6_Pj(ptr noundef %6, ptr noundef %8, ptr noundef %9)
  ret i1 %10
}

; Function Attrs: mustprogress uwtable
define noundef zeroext i1 @_ZN4base12StringToUintERKNS_16BasicStringPieceINSt7__cxx1112basic_stringItNS_20string16_char_traitsESaItEEEEEPj(ptr noundef nonnull align 8 dereferenceable(16) %0, ptr noundef %1) #0 {
  %3 = alloca ptr, align 8
  %4 = alloca ptr, align 8
  store ptr %0, ptr %3, align 8, !tbaa !36
  store ptr %1, ptr %4, align 8, !tbaa !34
  %5 = load ptr, ptr %3, align 8, !tbaa !36
  %6 = load ptr, ptr %4, align 8, !tbaa !34
  %7 = call noundef zeroext i1 @_ZN4base12_GLOBAL__N_117String16ToIntImplIjEEbRKNS_16BasicStringPieceINSt7__cxx1112basic_stringItNS_20string16_char_traitsESaItEEEEEPT_(ptr noundef nonnull align 8 dereferenceable(16) %5, ptr noundef %6)
  ret i1 %7
}